; Function Attrs: mustprogress nounwind uwtable
define hidden noundef i64 @_ZN4llvh14raw_fd_ostream4seekEm(ptr noundef nonnull align 8 dereferenceable(72) %this, i64 noundef %off) local_unnamed_addr #0 align 2 {
entry:
  %OutBufCur.i = getelementptr inbounds i8, ptr %this, i64 24
  %0 = load ptr, ptr %OutBufCur.i, align 8
  %OutBufStart.i = getelementptr inbounds i8, ptr %this, i64 8
  %1 = load ptr, ptr %OutBufStart.i, align 8
  %cmp.not.i = icmp eq ptr %0, %1
  br i1 %cmp.not.i, label %_ZN4llvh11raw_ostream5flushEv.exit, label %if.then.i

if.then.i:                                        ; preds = %entry
  %sub.ptr.lhs.cast.i.i = ptrtoint ptr %0 to i64
  %sub.ptr.rhs.cast.i.i = ptrtoint ptr %1 to i64
  %sub.ptr.sub.i.i = sub i64 %sub.ptr.lhs.cast.i.i, %sub.ptr.rhs.cast.i.i
  store ptr %1, ptr %OutBufCur.i, align 8
  %vtable.i.i = load ptr, ptr %this, align 8
  %vfn.i.i = getelementptr inbounds i8, ptr %vtable.i.i, i64 56
  %2 = load ptr, ptr %vfn.i.i, align 8
  tail call void %2(ptr noundef nonnull align 8 dereferenceable(36) %this, ptr noundef %1, i64 noundef %sub.ptr.sub.i.i) #26
  br label %_ZN4llvh11raw_ostream5flushEv.exit

_ZN4llvh11raw_ostream5flushEv.exit:               ; preds = %entry, %if.then.i
  %FD = getelementptr inbounds i8, ptr %this, i64 36
  %3 = load i32, ptr %FD, align 4
  %call = tail call i64 @lseek64(i32 noundef %3, i64 noundef %off, i32 noundef 0) #26
  %pos = getelementptr inbounds i8, ptr %this, i64 64
  store i64 %call, ptr %pos, align 8
  %cmp = icmp eq i64 %call, -1
  br i1 %cmp, label %if.then, label %if.end

if.then:                                          ; preds = %_ZN4llvh11raw_ostream5flushEv.exit
  %call3 = tail call ptr @__errno_location() #28
  %4 = load i32, ptr %call3, align 4
  %call4 = tail call noundef nonnull align 8 dereferenceable(8) ptr @_ZNSt3_V216generic_categoryEv() #28
  %EC2.i = getelementptr inbounds i8, ptr %this, i64 48
  store i32 %4, ptr %EC2.i, align 8
  %EC.sroa.21.0.EC2.sroa_idx.i = getelementptr inbounds i8, ptr %this, i64 56
  store ptr %call4, ptr %EC.sroa.21.0.EC2.sroa_idx.i, align 8
  br label %if.end

if.end:                                           ; preds = %if.then, %_ZN4llvh11raw_ostream5flushEv.exit
  ret i64 %call
}